target datalayout = "e-m:e-p270:32:32-p271:32:32-p272:64:64-i64:64-i128:128-f80:128-n8:16:32:64-S128"
target triple = "x86_64-pc-linux-gnu"

%struct.gmx_ana_index_t = type { i32, ptr, i32 }
%"struct.__gnu_cxx::__ops::_Iter_less_iter" = type { i8 }

; Function Attrs: mustprogress nounwind uwtable
define linkonce_odr noundef zeroext i1 @_ZNK9__gnu_cxx5__ops15_Iter_less_iterclIPiS3_EEbT_T0_(ptr noundef nonnull align 1 dereferenceable(1) %0, ptr noundef %1, ptr noundef %2) #1 comdat align 2 {
  %4 = alloca ptr, align 8
  %5 = alloca ptr, align 8
  %6 = alloca ptr, align 8
  store ptr %0, ptr %4, align 8, !tbaa !310
  store ptr %1, ptr %5, align 8, !tbaa !77
  store ptr %2, ptr %6, align 8, !tbaa !77
  %7 = load ptr, ptr %5, align 8, !tbaa !77
  %8 = load i32, ptr %7, align 4, !tbaa !114
  %9 = load ptr, ptr %6, align 8, !tbaa !77
  %10 = load i32, ptr %9, align 4, !tbaa !114
  %11 = icmp slt i32 %8, %10
  ret i1 %11
}

; Function Attrs: mustprogress uwtable
define linkonce_odr noundef ptr @_ZSt13__max_elementIPiN9__gnu_cxx5__ops15_Iter_less_iterEET_S4_S4_T0_(ptr noundef %0, ptr noundef %1) #0 comdat {
  %3 = alloca ptr, align 8
  %4 = alloca %"struct.__gnu_cxx::__ops::_Iter_less_iter", align 1
  %5 = alloca ptr, align 8
  %6 = alloca ptr, align 8
  %7 = alloca ptr, align 8
  store ptr %0, ptr %5, align 8, !tbaa !77
  store ptr %1, ptr %6, align 8, !tbaa !77
  %8 = load ptr, ptr %5, align 8, !tbaa !77
  %9 = load ptr, ptr %6, align 8, !tbaa !77
  %10 = icmp eq ptr %8, %9
  br i1 %10, label %11, label %13

11:                                               ; preds = %2
  %12 = load ptr, ptr %5, align 8, !tbaa !77
  store ptr %12, ptr %3, align 8
  br label %29

13:                                               ; preds = %2
  call void @llvm.lifetime.start.p0(i64 8, ptr %7) #19
  %14 = load ptr, ptr %5, align 8, !tbaa !77
  store ptr %14, ptr %7, align 8, !tbaa !77
  br label %15

15:                                               ; preds = %26, %13
  %16 = load ptr, ptr %5, align 8, !tbaa !77
  %17 = getelementptr inbounds nuw i32, ptr %16, i32 1
  store ptr %17, ptr %5, align 8, !tbaa !77
  %18 = load ptr, ptr %6, align 8, !tbaa !77
  %19 = icmp ne ptr %17, %18
  br i1 %19, label %20, label %27

20:                                               ; preds = %15
  %21 = load ptr, ptr %7, align 8, !tbaa !77
  %22 = load ptr, ptr %5, align 8, !tbaa !77
  %23 = call noundef zeroext i1 @_ZNK9__gnu_cxx5__ops15_Iter_less_iterclIPiS3_EEbT_T0_(ptr noundef nonnull align 1 dereferenceable(1) %4, ptr noundef %21, ptr noundef %22)
  br i1 %23, label %24, label %26

24:                                               ; preds = %20
  %25 = load ptr, ptr %5, align 8, !tbaa !77
  store ptr %25, ptr %7, align 8, !tbaa !77
  br label %26

26:                                               ; preds = %24, %20
  br label %15, !llvm.loop !309

27:                                               ; preds = %15
  %28 = load ptr, ptr %7, align 8, !tbaa !77
  store ptr %28, ptr %3, align 8
  call void @llvm.lifetime.end.p0(i64 8, ptr %7) #19
  br label %29

29:                                               ; preds = %27, %11
  %30 = load ptr, ptr %3, align 8
  ret ptr %30
}

; Function Attrs: inlinehint mustprogress nounwind uwtable
define linkonce_odr void @_ZN9__gnu_cxx5__ops16__iter_less_iterEv() #4 comdat {
  ret void
}

; Function Attrs: inlinehint mustprogress uwtable
define linkonce_odr noundef ptr @_ZSt11max_elementIPiET_S1_S1_(ptr noundef %0, ptr noundef %1) #5 comdat {
  %3 = alloca ptr, align 8
  %4 = alloca ptr, align 8
  store ptr %0, ptr %3, align 8, !tbaa !77
  store ptr %1, ptr %4, align 8, !tbaa !77
  %5 = load ptr, ptr %3, align 8, !tbaa !77
  %6 = load ptr, ptr %4, align 8, !tbaa !77
  call void @_ZN9__gnu_cxx5__ops16__iter_less_iterEv()
  %7 = call noundef ptr @_ZSt13__max_elementIPiN9__gnu_cxx5__ops15_Iter_less_iterEET_S4_S4_T0_(ptr noundef %5, ptr noundef %6)
  ret ptr %7
}

; Function Attrs: mustprogress uwtable
define noundef i32 @_Z27gmx_ana_index_get_max_indexP15gmx_ana_index_t(ptr noundef %0) #0 {
  %2 = alloca i32, align 4
  %3 = alloca ptr, align 8
  store ptr %0, ptr %3, align 8, !tbaa !232
  %4 = load ptr, ptr %3, align 8, !tbaa !232
  %5 = getelementptr inbounds nuw %struct.gmx_ana_index_t, ptr %4, i32 0, i32 0
  %6 = load i32, ptr %5, align 8, !tbaa !234
  %7 = icmp eq i32 %6, 0
  br i1 %7, label %8, label %9

8:                                                ; preds = %1
  store i32 0, ptr %2, align 4
  br label %23

9:                                                ; preds = %1
  %10 = load ptr, ptr %3, align 8, !tbaa !232
  %11 = getelementptr inbounds nuw %struct.gmx_ana_index_t, ptr %10, i32 0, i32 1
  %12 = load ptr, ptr %11, align 8, !tbaa !236
  %13 = load ptr, ptr %3, align 8, !tbaa !232
  %14 = getelementptr inbounds nuw %struct.gmx_ana_index_t, ptr %13, i32 0, i32 1
  %15 = load ptr, ptr %14, align 8, !tbaa !236
  %16 = load ptr, ptr %3, align 8, !tbaa !232
  %17 = getelementptr inbounds nuw %struct.gmx_ana_index_t, ptr %16, i32 0, i32 0
  %18 = load i32, ptr %17, align 8, !tbaa !234
  %19 = sext i32 %18 to i64
  %20 = getelementptr inbounds i32, ptr %15, i64 %19
  %21 = call noundef ptr @_ZSt11max_elementIPiET_S1_S1_(ptr noundef %12, ptr noundef %20)
  %22 = load i32, ptr %21, align 4, !tbaa !114
  store i32 %22, ptr %2, align 4
  br label %23

23:                                               ; preds = %9, %8
  %24 = load i32, ptr %2, align 4
  ret i32 %24
}