; Function Attrs: mustprogress nofree norecurse nosync nounwind willreturn memory(read, inaccessiblemem: none) uwtable
define noundef i32 @_Z27gmx_ana_index_get_max_indexP15gmx_ana_index_t(ptr noundef readonly captures(none) %0) local_unnamed_addr #18 {
  %2 = load i32, ptr %0, align 8, !tbaa !73
  %3 = icmp eq i32 %2, 0
  br i1 %3, label %17, label %4

4:                                                ; preds = %1
  %5 = getelementptr inbounds nuw i8, ptr %0, i64 8
  %6 = load ptr, ptr %5, align 8, !tbaa !108
  %7 = sext i32 %2 to i64
  %.idx = shl nsw i64 %7, 2
  %8 = getelementptr inbounds i8, ptr %6, i64 %.idx
  %.not17.i.i = icmp eq i32 %2, 1
  br i1 %.not17.i.i, label %_ZSt11max_elementIPiET_S1_S1_.exit, label %.lr.ph.preheader.i.i

.lr.ph.preheader.i.i:                             ; preds = %4
  %9 = getelementptr inbounds nuw i8, ptr %6, i64 4
  %.pre.i.i = load i32, ptr %6, align 4, !tbaa !36
  br label %.lr.ph.i.i

.lr.ph.i.i:                                       ; preds = %.lr.ph.i.i, %.lr.ph.preheader.i.i
  %10 = phi i32 [ %14, %.lr.ph.i.i ], [ %.pre.i.i, %.lr.ph.preheader.i.i ]
  %11 = phi ptr [ %15, %.lr.ph.i.i ], [ %9, %.lr.ph.preheader.i.i ]
  %.018.i.i = phi ptr [ %spec.select.i.i, %.lr.ph.i.i ], [ %6, %.lr.ph.preheader.i.i ]
  %12 = load i32, ptr %11, align 4, !tbaa !36
  %13 = icmp slt i32 %10, %12
  %14 = tail call i32 @llvm.smax.i32(i32 %10, i32 %12)
  %spec.select.i.i = select i1 %13, ptr %11, ptr %.018.i.i
  %15 = getelementptr inbounds nuw i8, ptr %11, i64 4
  %.not.i.i = icmp eq ptr %15, %8
  br i1 %.not.i.i, label %_ZSt11max_elementIPiET_S1_S1_.exit, label %.lr.ph.i.i, !llvm.loop !113

_ZSt11max_elementIPiET_S1_S1_.exit:               ; preds = %.lr.ph.i.i, %4
  %.011.i.i = phi ptr [ %6, %4 ], [ %spec.select.i.i, %.lr.ph.i.i ]
  %16 = load i32, ptr %.011.i.i, align 4, !tbaa !36
  br label %17

17:                                               ; preds = %1, %_ZSt11max_elementIPiET_S1_S1_.exit
  %.0 = phi i32 [ %16, %_ZSt11max_elementIPiET_S1_S1_.exit ], [ 0, %1 ]
  ret i32 %.0
}